target datalayout = "e-m:e-p270:32:32-p271:32:32-p272:64:64-i64:64-i128:128-f80:128-n8:16:32:64-S128"
target triple = "x86_64-pc-linux-gnu"

; Function Attrs: mustprogress nounwind uwtable
define noundef ptr @_ZN7rocksdb4port23cacheline_aligned_allocEm(i64 noundef %0) #3 {
  %2 = alloca i64, align 8
  %3 = alloca ptr, align 8
  store i64 %0, ptr %2, align 8, !tbaa !23
  call void @llvm.lifetime.start.p0(i64 8, ptr %3) #13
  %4 = load i64, ptr %2, align 8, !tbaa !23
  %5 = call i32 @posix_memalign(ptr noundef %3, i64 noundef 64, i64 noundef %4) #13
  %6 = call ptr @__errno_location() #15
  store i32 %5, ptr %6, align 4, !tbaa !15
  %7 = call ptr @__errno_location() #15
  %8 = load i32, ptr %7, align 4, !tbaa !15
  %9 = icmp ne i32 %8, 0
  br i1 %9, label %10, label %11

10:                                               ; preds = %1
  br label %13

11:                                               ; preds = %1
  %12 = load ptr, ptr %3, align 8, !tbaa !32
  br label %13

13:                                               ; preds = %11, %10
  %14 = phi ptr [ null, %10 ], [ %12, %11 ]
  call void @llvm.lifetime.end.p0(i64 8, ptr %3) #13
  ret ptr %14
}