; Function Attrs: mustprogress nofree nounwind uwtable
define noundef ptr @_ZN7rocksdb4port23cacheline_aligned_allocEm(i64 noundef %0) local_unnamed_addr #9 {
  %2 = alloca ptr, align 8
  call void @llvm.lifetime.start.p0(i64 8, ptr nonnull %2) #17
  %3 = call i32 @posix_memalign(ptr noundef nonnull %2, i64 noundef 64, i64 noundef %0) #17
  %4 = tail call ptr @__errno_location() #20
  store i32 %3, ptr %4, align 4, !tbaa !20
  %.not = icmp eq i32 %3, 0
  %5 = load ptr, ptr %2, align 8
  %6 = select i1 %.not, ptr %5, ptr null
  call void @llvm.lifetime.end.p0(i64 8, ptr nonnull %2) #17
  ret ptr %6
}